; ModuleID = '43/1287.c'
source_filename = "43/1287.c"
target datalayout = "e-m:e-p270:32:32-p271:32:32-p272:64:64-i64:64-f80:128-n8:16:32:64-S128"
target triple = "x86_64-pc-linux-gnu"

@.str = private unnamed_addr constant [3 x i8] c"%d\00", align 1
@.str.1 = private unnamed_addr constant [7 x i8] c"%d %d\0A\00", align 1

; Function Attrs: noinline nounwind uwtable
define dso_local i32 @f(i32 %0) #0 {
  %2 = alloca i32, align 4
  %3 = alloca i32, align 4
  %4 = alloca i32, align 4
  store i32 %0, i32* %2, align 4
  store i32 2, i32* %3, align 4
  store i32 0, i32* %4, align 4
  br label %5

5:                                                ; preds = %12, %1
  %6 = load i32, i32* %3, align 4
  %7 = sitofp i32 %6 to double
  %8 = load i32, i32* %2, align 4
  %9 = sitofp i32 %8 to double
  %10 = call double @sqrt(double %9) #3
  %11 = fcmp ole double %7, %10
  br i1 %11, label %12, label %27

12:                                               ; preds = %5
  %13 = load i32, i32* %4, align 4
  %14 = load i32, i32* %2, align 4
  %15 = load i32, i32* %2, align 4
  %16 = load i32, i32* %3, align 4
  %17 = sdiv i32 %15, %16
  %18 = load i32, i32* %3, align 4
  %19 = mul nsw i32 %17, %18
  %20 = sub nsw i32 %14, %19
  %21 = icmp ne i32 %20, 0
  %22 = xor i1 %21, true
  %23 = zext i1 %22 to i32
  %24 = add nsw i32 %13, %23
  store i32 %24, i32* %4, align 4
  %25 = load i32, i32* %3, align 4
  %26 = add nsw i32 %25, 1
  store i32 %26, i32* %3, align 4
  br label %5

27:                                               ; preds = %5
  %28 = load i32, i32* %4, align 4
  ret i32 %28
}

; Function Attrs: nounwind
declare dso_local double @sqrt(double) #1

; Function Attrs: noinline nounwind uwtable
define dso_local i32 @main() #0 {
  %1 = alloca i32, align 4
  %2 = alloca i32, align 4
  %3 = alloca i32, align 4
  %4 = alloca i32, align 4
  store i32 0, i32* %1, align 4
  store i32 2, i32* %2, align 4
  %5 = call i32 (i8*, ...) @__isoc99_scanf(i8* getelementptr inbounds ([3 x i8], [3 x i8]* @.str, i64 0, i64 0), i32* %4)
  br label %6

6:                                                ; preds = %31, %0
  %7 = load i32, i32* %2, align 4
  %8 = load i32, i32* %4, align 4
  %9 = sdiv i32 %8, 2
  %10 = icmp sle i32 %7, %9
  br i1 %10, label %11, label %34

11:                                               ; preds = %6
  %12 = load i32, i32* %4, align 4
  %13 = load i32, i32* %2, align 4
  %14 = sub nsw i32 %12, %13
  store i32 %14, i32* %3, align 4
  %15 = load i32, i32* %2, align 4
  %16 = call i32 @f(i32 %15)
  %17 = load i32, i32* %2, align 4
  %18 = call i32 @f(i32 %17)
  %19 = mul nsw i32 %16, %18
  %20 = load i32, i32* %3, align 4
  %21 = call i32 @f(i32 %20)
  %22 = load i32, i32* %3, align 4
  %23 = call i32 @f(i32 %22)
  %24 = mul nsw i32 %21, %23
  %25 = add nsw i32 %19, %24
  %26 = icmp eq i32 %25, 0
  br i1 %26, label %27, label %31

27:                                               ; preds = %11
  %28 = load i32, i32* %2, align 4
  %29 = load i32, i32* %3, align 4
  %30 = call i32 (i8*, ...) @printf(i8* getelementptr inbounds ([7 x i8], [7 x i8]* @.str.1, i64 0, i64 0), i32 %28, i32 %29)
  br label %31

31:                                               ; preds = %27, %11
  %32 = load i32, i32* %2, align 4
  %33 = add nsw i32 %32, 1
  store i32 %33, i32* %2, align 4
  br label %6

34:                                               ; preds = %6
  %35 = load i32, i32* %1, align 4
  ret i32 %35
}

declare dso_local i32 @__isoc99_scanf(i8*, ...) #2

declare dso_local i32 @printf(i8*, ...) #2


!llvm.module.flags = !{!0}
!llvm.ident = !{!1}

!0 = !{i32 1, !"wchar_size", i32 4}
!1 = !{!"clang version 10.0.0-4ubuntu1 "}
